target datalayout = "e-m:e-p270:32:32-p271:32:32-p272:64:64-i64:64-i128:128-f80:128-n8:16:32:64-S128"
target triple = "x86_64-pc-linux-gnu"

%struct.lv_ll_t = type { i32, ptr, ptr }
%struct._lv_ime_pinyin_t = type { %struct._lv_obj_t, ptr, ptr, ptr, %struct.lv_ll_t, ptr, [16 x i8], [8 x i8], i16, i16, i16, i16, i16, i16, [26 x i16], [26 x i16], i32 }
%struct._lv_obj_t = type { ptr, ptr, ptr, ptr, ptr, %struct.lv_area_t, i32, i16, i16 }
%struct.lv_area_t = type { i32, i32, i32, i32 }

; Function Attrs: nounwind uwtable
define void @lv_ime_pinyin_set_keyboard(ptr noundef %0, ptr noundef %1) #0 {
  %3 = alloca ptr, align 8
  %4 = alloca ptr, align 8
  %5 = alloca ptr, align 8
  store ptr %0, ptr %3, align 8, !tbaa !8
  store ptr %1, ptr %4, align 8, !tbaa !8
  %6 = load ptr, ptr %4, align 8, !tbaa !8
  %7 = icmp ne ptr %6, null
  br i1 %7, label %8, label %18

8:                                                ; preds = %2
  br label %9

9:                                                ; preds = %8
  %10 = load ptr, ptr %4, align 8, !tbaa !8
  %11 = icmp ne ptr %10, null
  br i1 %11, label %16, label %12

12:                                               ; preds = %9
  br label %13

13:                                               ; preds = %12
  br label %14

14:                                               ; preds = %13
  br label %15

15:                                               ; preds = %14, %15
  br label %15

16:                                               ; preds = %9
  br label %17

17:                                               ; preds = %16
  br label %18

18:                                               ; preds = %17, %2
  br label %19

19:                                               ; preds = %18
  %20 = load ptr, ptr %3, align 8, !tbaa !8
  %21 = icmp ne ptr %20, null
  br i1 %21, label %26, label %22

22:                                               ; preds = %19
  br label %23

23:                                               ; preds = %22
  br label %24

24:                                               ; preds = %23
  br label %25

25:                                               ; preds = %24, %25
  br label %25

26:                                               ; preds = %19
  br label %27

27:                                               ; preds = %26
  call void @llvm.lifetime.start.p0(i64 8, ptr %5) #6
  %28 = load ptr, ptr %3, align 8, !tbaa !8
  store ptr %28, ptr %5, align 8, !tbaa !10
  %29 = load ptr, ptr %4, align 8, !tbaa !8
  %30 = load ptr, ptr %5, align 8, !tbaa !10
  %31 = getelementptr inbounds nuw %struct._lv_ime_pinyin_t, ptr %30, i32 0, i32 1
  store ptr %29, ptr %31, align 8, !tbaa !34
  %32 = load ptr, ptr %3, align 8, !tbaa !8
  %33 = load ptr, ptr %4, align 8, !tbaa !8
  %34 = call ptr @lv_obj_get_parent(ptr noundef %33)
  call void @lv_obj_set_parent(ptr noundef %32, ptr noundef %34)
  %35 = load ptr, ptr %5, align 8, !tbaa !10
  %36 = getelementptr inbounds nuw %struct._lv_ime_pinyin_t, ptr %35, i32 0, i32 2
  %37 = load ptr, ptr %36, align 8, !tbaa !30
  %38 = load ptr, ptr %4, align 8, !tbaa !8
  %39 = call ptr @lv_obj_get_parent(ptr noundef %38)
  call void @lv_obj_set_parent(ptr noundef %37, ptr noundef %39)
  %40 = load ptr, ptr %5, align 8, !tbaa !10
  %41 = getelementptr inbounds nuw %struct._lv_ime_pinyin_t, ptr %40, i32 0, i32 1
  %42 = load ptr, ptr %41, align 8, !tbaa !34
  %43 = load ptr, ptr %3, align 8, !tbaa !8
  %44 = call ptr @lv_obj_add_event_cb(ptr noundef %42, ptr noundef @lv_ime_pinyin_kb_event, i32 noundef 35, ptr noundef %43)
  %45 = load ptr, ptr %5, align 8, !tbaa !10
  %46 = getelementptr inbounds nuw %struct._lv_ime_pinyin_t, ptr %45, i32 0, i32 2
  %47 = load ptr, ptr %46, align 8, !tbaa !30
  %48 = load ptr, ptr %5, align 8, !tbaa !10
  %49 = getelementptr inbounds nuw %struct._lv_ime_pinyin_t, ptr %48, i32 0, i32 1
  %50 = load ptr, ptr %49, align 8, !tbaa !34
  call void @lv_obj_align_to(ptr noundef %47, ptr noundef %50, i32 noundef 11, i32 noundef 0, i32 noundef 0)
  call void @llvm.lifetime.end.p0(i64 8, ptr %5) #6
  ret void
}