; Function Attrs: nounwind uwtable
define void @lv_ime_pinyin_set_keyboard(ptr noundef %0, ptr noundef %1) local_unnamed_addr #0 {
  %.not = icmp eq ptr %0, null
  br i1 %.not, label %.preheader, label %3

.preheader:                                       ; preds = %2, %.preheader
  br label %.preheader

3:                                                ; preds = %2
  %4 = getelementptr inbounds nuw i8, ptr %0, i64 64
  store ptr %1, ptr %4, align 8, !tbaa !36
  %5 = tail call ptr @lv_obj_get_parent(ptr noundef %1) #6
  tail call void @lv_obj_set_parent(ptr noundef nonnull %0, ptr noundef %5) #6
  %6 = getelementptr inbounds nuw i8, ptr %0, i64 72
  %7 = load ptr, ptr %6, align 8, !tbaa !30
  %8 = tail call ptr @lv_obj_get_parent(ptr noundef %1) #6
  tail call void @lv_obj_set_parent(ptr noundef %7, ptr noundef %8) #6
  %9 = load ptr, ptr %4, align 8, !tbaa !36
  %10 = tail call ptr @lv_obj_add_event_cb(ptr noundef %9, ptr noundef nonnull @lv_ime_pinyin_kb_event, i32 noundef 35, ptr noundef nonnull %0) #6
  %11 = load ptr, ptr %6, align 8, !tbaa !30
  %12 = load ptr, ptr %4, align 8, !tbaa !36
  tail call void @lv_obj_align_to(ptr noundef %11, ptr noundef %12, i32 noundef 11, i32 noundef 0, i32 noundef 0) #6
  ret void
}